; Function Attrs: mustprogress uwtable
define hidden void @_ZN3vas2ot7Tracker19RemoveDeadTrackletsEv(ptr noundef nonnull align 8 dereferenceable(72) %0) local_unnamed_addr #0 align 2 {
  %2 = getelementptr inbounds i8, ptr %0, i64 48
  %3 = load ptr, ptr %2, align 8
  %4 = getelementptr inbounds i8, ptr %0, i64 56
  %5 = load ptr, ptr %4, align 8
  %.not6 = icmp eq ptr %3, %5
  br i1 %.not6, label %._crit_edge, label %.lr.ph

.lr.ph:                                           ; preds = %1, %20
  %6 = phi ptr [ %21, %20 ], [ %5, %1 ]
  %.sroa.02.07 = phi ptr [ %.sroa.02.1, %20 ], [ %3, %1 ]
  %7 = load ptr, ptr %.sroa.02.07, align 8
  %8 = getelementptr inbounds i8, ptr %7, i64 20
  %9 = load i32, ptr %8, align 4
  %10 = icmp eq i32 %9, -1
  br i1 %10, label %11, label %18

11:                                               ; preds = %.lr.ph
  %12 = load ptr, ptr %2, align 8
  %13 = ptrtoint ptr %.sroa.02.07 to i64
  %14 = ptrtoint ptr %12 to i64
  %15 = sub i64 %13, %14
  %16 = getelementptr inbounds i8, ptr %12, i64 %15
  %17 = tail call ptr @_ZNSt6vectorISt10shared_ptrIN3vas2ot8TrackletEESaIS4_EE8_M_eraseEN9__gnu_cxx17__normal_iteratorIPS4_S6_EE(ptr noundef nonnull align 8 dereferenceable(24) %2, ptr %16)
  %.pre = load ptr, ptr %4, align 8
  br label %20

18:                                               ; preds = %.lr.ph
  %19 = getelementptr inbounds i8, ptr %.sroa.02.07, i64 16
  br label %20

20:                                               ; preds = %18, %11
  %21 = phi ptr [ %.pre, %11 ], [ %6, %18 ]
  %.sroa.02.1 = phi ptr [ %17, %11 ], [ %19, %18 ]
  %.not = icmp eq ptr %.sroa.02.1, %21
  br i1 %.not, label %._crit_edge, label %.lr.ph, !llvm.loop !23

._crit_edge:                                      ; preds = %20, %1
  ret void
}